target datalayout = "e-m:e-p270:32:32-p271:32:32-p272:64:64-i64:64-i128:128-f80:128-n8:16:32:64-S128"
target triple = "x86_64-pc-linux-gnu"

%struct.Codebook = type { i32, i32, ptr, float, float, i8, i8, i8, i8, i32, ptr, ptr, [1024 x i16], ptr, ptr, i32 }

; Function Attrs: nounwind uwtable
define i32 @codebook_decode_step(ptr noundef %0, ptr noundef %1, ptr noundef %2, i32 noundef %3, i32 noundef %4) #0 {
  %6 = alloca i32, align 4
  %7 = alloca ptr, align 8
  %8 = alloca ptr, align 8
  %9 = alloca ptr, align 8
  %10 = alloca i32, align 4
  %11 = alloca i32, align 4
  %12 = alloca i32, align 4
  %13 = alloca i32, align 4
  %14 = alloca float, align 4
  %15 = alloca i32, align 4
  %16 = alloca float, align 4
  store ptr %0, ptr %7, align 8, !tbaa !3
  store ptr %1, ptr %8, align 8, !tbaa !18
  store ptr %2, ptr %9, align 8, !tbaa !58
  store i32 %3, ptr %10, align 4, !tbaa !8
  store i32 %4, ptr %11, align 4, !tbaa !8
  call void @llvm.lifetime.start.p0(i64 4, ptr %12) #11
  call void @llvm.lifetime.start.p0(i64 4, ptr %13) #11
  %17 = load ptr, ptr %7, align 8, !tbaa !3
  %18 = load ptr, ptr %8, align 8, !tbaa !18
  %19 = call i32 @codebook_decode_start(ptr noundef %17, ptr noundef %18)
  store i32 %19, ptr %13, align 4, !tbaa !8
  call void @llvm.lifetime.start.p0(i64 4, ptr %14) #11
  store float 0.000000e+00, ptr %14, align 4, !tbaa !28
  %20 = load i32, ptr %13, align 4, !tbaa !8
  %21 = icmp slt i32 %20, 0
  br i1 %21, label %22, label %23

22:                                               ; preds = %5
  store i32 0, ptr %6, align 4
  store i32 1, ptr %15, align 4
  br label %75

23:                                               ; preds = %5
  %24 = load i32, ptr %10, align 4, !tbaa !8
  %25 = load ptr, ptr %8, align 8, !tbaa !18
  %26 = getelementptr inbounds nuw %struct.Codebook, ptr %25, i32 0, i32 0
  %27 = load i32, ptr %26, align 8, !tbaa !101
  %28 = icmp sgt i32 %24, %27
  br i1 %28, label %29, label %33

29:                                               ; preds = %23
  %30 = load ptr, ptr %8, align 8, !tbaa !18
  %31 = getelementptr inbounds nuw %struct.Codebook, ptr %30, i32 0, i32 0
  %32 = load i32, ptr %31, align 8, !tbaa !101
  store i32 %32, ptr %10, align 4, !tbaa !8
  br label %33

33:                                               ; preds = %29, %23
  %34 = load ptr, ptr %8, align 8, !tbaa !18
  %35 = getelementptr inbounds nuw %struct.Codebook, ptr %34, i32 0, i32 0
  %36 = load i32, ptr %35, align 8, !tbaa !101
  %37 = load i32, ptr %13, align 4, !tbaa !8
  %38 = mul nsw i32 %37, %36
  store i32 %38, ptr %13, align 4, !tbaa !8
  store i32 0, ptr %12, align 4, !tbaa !8
  br label %39

39:                                               ; preds = %71, %33
  %40 = load i32, ptr %12, align 4, !tbaa !8
  %41 = load i32, ptr %10, align 4, !tbaa !8
  %42 = icmp slt i32 %40, %41
  br i1 %42, label %43, label %74

43:                                               ; preds = %39
  call void @llvm.lifetime.start.p0(i64 4, ptr %16) #11
  %44 = load ptr, ptr %8, align 8, !tbaa !18
  %45 = getelementptr inbounds nuw %struct.Codebook, ptr %44, i32 0, i32 10
  %46 = load ptr, ptr %45, align 8, !tbaa !103
  %47 = load i32, ptr %13, align 4, !tbaa !8
  %48 = load i32, ptr %12, align 4, !tbaa !8
  %49 = add nsw i32 %47, %48
  %50 = sext i32 %49 to i64
  %51 = getelementptr inbounds float, ptr %46, i64 %50
  %52 = load float, ptr %51, align 4, !tbaa !28
  %53 = load float, ptr %14, align 4, !tbaa !28
  %54 = fadd float %52, %53
  store float %54, ptr %16, align 4, !tbaa !28
  %55 = load float, ptr %16, align 4, !tbaa !28
  %56 = load ptr, ptr %9, align 8, !tbaa !58
  %57 = load i32, ptr %12, align 4, !tbaa !8
  %58 = load i32, ptr %11, align 4, !tbaa !8
  %59 = mul nsw i32 %57, %58
  %60 = sext i32 %59 to i64
  %61 = getelementptr inbounds float, ptr %56, i64 %60
  %62 = load float, ptr %61, align 4, !tbaa !28
  %63 = fadd float %62, %55
  store float %63, ptr %61, align 4, !tbaa !28
  %64 = load ptr, ptr %8, align 8, !tbaa !18
  %65 = getelementptr inbounds nuw %struct.Codebook, ptr %64, i32 0, i32 7
  %66 = load i8, ptr %65, align 2, !tbaa !102
  %67 = icmp ne i8 %66, 0
  br i1 %67, label %68, label %70

68:                                               ; preds = %43
  %69 = load float, ptr %16, align 4, !tbaa !28
  store float %69, ptr %14, align 4, !tbaa !28
  br label %70

70:                                               ; preds = %68, %43
  call void @llvm.lifetime.end.p0(i64 4, ptr %16) #11
  br label %71

71:                                               ; preds = %70
  %72 = load i32, ptr %12, align 4, !tbaa !8
  %73 = add nsw i32 %72, 1
  store i32 %73, ptr %12, align 4, !tbaa !8
  br label %39, !llvm.loop !107

74:                                               ; preds = %39
  store i32 1, ptr %6, align 4
  store i32 1, ptr %15, align 4
  br label %75

75:                                               ; preds = %74, %22
  call void @llvm.lifetime.end.p0(i64 4, ptr %14) #11
  call void @llvm.lifetime.end.p0(i64 4, ptr %13) #11
  call void @llvm.lifetime.end.p0(i64 4, ptr %12) #11
  %76 = load i32, ptr %6, align 4
  ret i32 %76
}