; Function Attrs: nofree nounwind uwtable
define range(i32 0, 2) i32 @codebook_decode_step(ptr noundef captures(none) %0, ptr noundef readonly captures(none) %1, ptr noundef captures(none) %2, i32 noundef %3, i32 noundef %4) local_unnamed_addr #17 {
  %6 = tail call i32 @codebook_decode_start(ptr noundef %0, ptr noundef %1)
  %7 = icmp slt i32 %6, 0
  br i1 %7, label %.loopexit, label %8

8:                                                ; preds = %5
  %9 = load i32, ptr %1, align 8, !tbaa !91
  %spec.select = tail call i32 @llvm.smin.i32(i32 %3, i32 %9)
  %10 = icmp sgt i32 %spec.select, 0
  br i1 %10, label %.lr.ph, label %.loopexit

.lr.ph:                                           ; preds = %8
  %11 = mul nsw i32 %9, %6
  %12 = getelementptr inbounds nuw i8, ptr %1, i64 32
  %13 = load ptr, ptr %12, align 8, !tbaa !93
  %14 = getelementptr inbounds nuw i8, ptr %1, i64 26
  %15 = load i8, ptr %14, align 2, !tbaa !92
  %.fr = freeze i8 %15
  %.not = icmp eq i8 %.fr, 0
  %16 = sext i32 %11 to i64
  %17 = sext i32 %4 to i64
  %wide.trip.count34 = zext nneg i32 %spec.select to i64
  %invariant.gep37 = getelementptr float, ptr %13, i64 %16
  br i1 %.not, label %.lr.ph.split.us, label %.lr.ph.split

.lr.ph.split.us:                                  ; preds = %.lr.ph, %.lr.ph.split.us
  %indvars.iv31 = phi i64 [ %indvars.iv.next32, %.lr.ph.split.us ], [ 0, %.lr.ph ]
  %gep38 = getelementptr float, ptr %invariant.gep37, i64 %indvars.iv31
  %18 = load float, ptr %gep38, align 4, !tbaa !48
  %19 = fadd float %18, 0.000000e+00
  %20 = mul nsw i64 %indvars.iv31, %17
  %21 = getelementptr inbounds float, ptr %2, i64 %20
  %22 = load float, ptr %21, align 4, !tbaa !48
  %23 = fadd float %22, %19
  store float %23, ptr %21, align 4, !tbaa !48
  %indvars.iv.next32 = add nuw nsw i64 %indvars.iv31, 1
  %exitcond35.not = icmp eq i64 %indvars.iv.next32, %wide.trip.count34
  br i1 %exitcond35.not, label %.loopexit, label %.lr.ph.split.us, !llvm.loop !97

.lr.ph.split:                                     ; preds = %.lr.ph, %.lr.ph.split
  %indvars.iv = phi i64 [ %indvars.iv.next, %.lr.ph.split ], [ 0, %.lr.ph ]
  %.02128 = phi float [ %25, %.lr.ph.split ], [ 0.000000e+00, %.lr.ph ]
  %gep = getelementptr float, ptr %invariant.gep37, i64 %indvars.iv
  %24 = load float, ptr %gep, align 4, !tbaa !48
  %25 = fadd float %.02128, %24
  %26 = mul nsw i64 %indvars.iv, %17
  %27 = getelementptr inbounds float, ptr %2, i64 %26
  %28 = load float, ptr %27, align 4, !tbaa !48
  %29 = fadd float %28, %25
  store float %29, ptr %27, align 4, !tbaa !48
  %indvars.iv.next = add nuw nsw i64 %indvars.iv, 1
  %exitcond.not = icmp eq i64 %indvars.iv.next, %wide.trip.count34
  br i1 %exitcond.not, label %.loopexit, label %.lr.ph.split, !llvm.loop !97

.loopexit:                                        ; preds = %.lr.ph.split, %.lr.ph.split.us, %8, %5
  %.0 = phi i32 [ 0, %5 ], [ 1, %8 ], [ 1, %.lr.ph.split.us ], [ 1, %.lr.ph.split ]
  ret i32 %.0
}